; Function Attrs: mustprogress uwtable
define internal fastcc void @_ZNSt16allocator_traitsISaISt10shared_ptrIN7testing8internal26ParameterizedTestSuiteInfoINS1_13TestWithParamIN4absl12log_internal12_GLOBAL__N_123StructuredProtoTestCaseEEEE8TestInfoEEEE9constructISC_JPSB_EEEvRSD_PT_DpOT0_(ptr noundef writeonly captures(none) initializes((0, 16)) %0, ptr %.0.val) unnamed_addr #3 align 2 personality ptr @__gxx_personality_v0 {
  store ptr %.0.val, ptr %0, align 8, !tbaa !71
  %2 = getelementptr inbounds nuw i8, ptr %0, i64 8
  store ptr null, ptr %2, align 8, !tbaa !57
  %3 = invoke noalias noundef nonnull dereferenceable(24) ptr @_Znwm(i64 noundef 24) #31
          to label %_ZNSt15__new_allocatorISt10shared_ptrIN7testing8internal26ParameterizedTestSuiteInfoINS1_13TestWithParamIN4absl12log_internal12_GLOBAL__N_123StructuredProtoTestCaseEEEE8TestInfoEEE9constructISC_JPSB_EEEvPT_DpOT0_.exit unwind label %4

4:                                                ; preds = %1
  %5 = landingpad { ptr, i32 }
          catch ptr null
  %6 = extractvalue { ptr, i32 } %5, 0
  %7 = tail call ptr @__cxa_begin_catch(ptr %6) #30
  %8 = icmp eq ptr %.0.val, null
  br i1 %8, label %10, label %9

9:                                                ; preds = %4
  tail call fastcc void @_ZN7testing8internal26ParameterizedTestSuiteInfoINS_13TestWithParamIN4absl12log_internal12_GLOBAL__N_123StructuredProtoTestCaseEEEE8TestInfoD2Ev(ptr noundef nonnull align 8 dereferenceable(80) %.0.val) #30
  tail call void @_ZdlPvm(ptr noundef nonnull %.0.val, i64 noundef 80) #32
  br label %10

10:                                               ; preds = %9, %4
  invoke void @__cxa_rethrow() #29
          to label %17 unwind label %11

11:                                               ; preds = %10
  %12 = landingpad { ptr, i32 }
          cleanup
  invoke void @__cxa_end_catch()
          to label %13 unwind label %14

13:                                               ; preds = %11
  resume { ptr, i32 } %12

14:                                               ; preds = %11
  %15 = landingpad { ptr, i32 }
          catch ptr null
  %16 = extractvalue { ptr, i32 } %15, 0
  tail call void @__clang_call_terminate(ptr %16) #33
  unreachable

17:                                               ; preds = %10
  unreachable

_ZNSt15__new_allocatorISt10shared_ptrIN7testing8internal26ParameterizedTestSuiteInfoINS1_13TestWithParamIN4absl12log_internal12_GLOBAL__N_123StructuredProtoTestCaseEEEE8TestInfoEEE9constructISC_JPSB_EEEvPT_DpOT0_.exit: ; preds = %1
  %18 = getelementptr inbounds nuw i8, ptr %3, i64 8
  store i32 1, ptr %18, align 8, !tbaa !64
  %19 = getelementptr inbounds nuw i8, ptr %3, i64 12
  store i32 1, ptr %19, align 4, !tbaa !66
  store ptr getelementptr inbounds nuw inrange(-16, 40) (i8, ptr @_ZTVSt15_Sp_counted_ptrIPN7testing8internal26ParameterizedTestSuiteInfoINS0_13TestWithParamIN4absl12log_internal12_GLOBAL__N_123StructuredProtoTestCaseEEEE8TestInfoELN9__gnu_cxx12_Lock_policyE2EE, i64 16), ptr %3, align 8, !tbaa !18
  %20 = getelementptr inbounds nuw i8, ptr %3, i64 16
  store ptr %.0.val, ptr %20, align 8, !tbaa !74
  store ptr %3, ptr %2, align 8, !tbaa !57
  ret void
}